target datalayout = "e-m:e-p270:32:32-p271:32:32-p272:64:64-i64:64-i128:128-f80:128-n8:16:32:64-S128"
target triple = "x86_64-pc-linux-gnu"

%"class.cv::Rect_" = type { i32, i32, i32, i32 }

; Function Attrs: inlinehint mustprogress nounwind uwtable
define linkonce_odr hidden void @_ZN2cv5Rect_IiEC2Ev(ptr noundef nonnull align 4 dereferenceable(16) %0) unnamed_addr #6 comdat align 2 {
  %2 = alloca ptr, align 8
  store ptr %0, ptr %2, align 8, !tbaa !128
  %3 = load ptr, ptr %2, align 8
  %4 = getelementptr inbounds nuw %"class.cv::Rect_", ptr %3, i32 0, i32 0
  store i32 0, ptr %4, align 4, !tbaa !171
  %5 = getelementptr inbounds nuw %"class.cv::Rect_", ptr %3, i32 0, i32 1
  store i32 0, ptr %5, align 4, !tbaa !172
  %6 = getelementptr inbounds nuw %"class.cv::Rect_", ptr %3, i32 0, i32 2
  store i32 0, ptr %6, align 4, !tbaa !130
  %7 = getelementptr inbounds nuw %"class.cv::Rect_", ptr %3, i32 0, i32 3
  store i32 0, ptr %7, align 4, !tbaa !132
  ret void
}

; Function Attrs: mustprogress uwtable
define { i64, i64 } @_ZN2cv6detail8tracking16TrackerSamplerCS12RectMultiplyERKNS_5Rect_IiEEf(ptr noundef nonnull align 8 dereferenceable(100) %0, ptr noundef nonnull align 4 dereferenceable(16) %1, float noundef %2) #4 align 2 {
  %4 = alloca %"class.cv::Rect_", align 4
  %5 = alloca ptr, align 8
  %6 = alloca ptr, align 8
  %7 = alloca float, align 4
  store ptr %0, ptr %5, align 8, !tbaa !150
  store ptr %1, ptr %6, align 8, !tbaa !128
  store float %2, ptr %7, align 4, !tbaa !110
  call void @_ZN2cv5Rect_IiEC2Ev(ptr noundef nonnull align 4 dereferenceable(16) %4)
  %8 = load ptr, ptr %6, align 8, !tbaa !128
  %9 = getelementptr inbounds nuw %"class.cv::Rect_", ptr %8, i32 0, i32 1
  %10 = load i32, ptr %9, align 4, !tbaa !172
  %11 = sitofp i32 %10 to float
  %12 = load ptr, ptr %6, align 8, !tbaa !128
  %13 = getelementptr inbounds nuw %"class.cv::Rect_", ptr %12, i32 0, i32 3
  %14 = load i32, ptr %13, align 4, !tbaa !132
  %15 = sitofp i32 %14 to float
  %16 = load float, ptr %7, align 4, !tbaa !110
  %17 = load ptr, ptr %6, align 8, !tbaa !128
  %18 = getelementptr inbounds nuw %"class.cv::Rect_", ptr %17, i32 0, i32 3
  %19 = load i32, ptr %18, align 4, !tbaa !132
  %20 = sitofp i32 %19 to float
  %21 = fneg float %20
  %22 = call float @llvm.fmuladd.f32(float %15, float %16, float %21)
  %23 = fdiv float %22, 2.000000e+00
  %24 = fsub float %11, %23
  %25 = fptosi float %24 to i32
  %26 = getelementptr inbounds nuw %"class.cv::Rect_", ptr %4, i32 0, i32 1
  store i32 %25, ptr %26, align 4, !tbaa !172
  %27 = getelementptr inbounds nuw %"class.cv::Rect_", ptr %4, i32 0, i32 1
  %28 = load i32, ptr %27, align 4, !tbaa !172
  %29 = icmp slt i32 %28, 0
  br i1 %29, label %30, label %32

30:                                               ; preds = %3
  %31 = getelementptr inbounds nuw %"class.cv::Rect_", ptr %4, i32 0, i32 1
  store i32 0, ptr %31, align 4, !tbaa !172
  br label %32

32:                                               ; preds = %30, %3
  %33 = load ptr, ptr %6, align 8, !tbaa !128
  %34 = getelementptr inbounds nuw %"class.cv::Rect_", ptr %33, i32 0, i32 0
  %35 = load i32, ptr %34, align 4, !tbaa !171
  %36 = sitofp i32 %35 to float
  %37 = load ptr, ptr %6, align 8, !tbaa !128
  %38 = getelementptr inbounds nuw %"class.cv::Rect_", ptr %37, i32 0, i32 2
  %39 = load i32, ptr %38, align 4, !tbaa !130
  %40 = sitofp i32 %39 to float
  %41 = load float, ptr %7, align 4, !tbaa !110
  %42 = load ptr, ptr %6, align 8, !tbaa !128
  %43 = getelementptr inbounds nuw %"class.cv::Rect_", ptr %42, i32 0, i32 2
  %44 = load i32, ptr %43, align 4, !tbaa !130
  %45 = sitofp i32 %44 to float
  %46 = fneg float %45
  %47 = call float @llvm.fmuladd.f32(float %40, float %41, float %46)
  %48 = fdiv float %47, 2.000000e+00
  %49 = fsub float %36, %48
  %50 = fptosi float %49 to i32
  %51 = getelementptr inbounds nuw %"class.cv::Rect_", ptr %4, i32 0, i32 0
  store i32 %50, ptr %51, align 4, !tbaa !171
  %52 = getelementptr inbounds nuw %"class.cv::Rect_", ptr %4, i32 0, i32 0
  %53 = load i32, ptr %52, align 4, !tbaa !171
  %54 = icmp slt i32 %53, 0
  br i1 %54, label %55, label %57

55:                                               ; preds = %32
  %56 = getelementptr inbounds nuw %"class.cv::Rect_", ptr %4, i32 0, i32 0
  store i32 0, ptr %56, align 4, !tbaa !171
  br label %57

57:                                               ; preds = %55, %32
  %58 = load ptr, ptr %6, align 8, !tbaa !128
  %59 = getelementptr inbounds nuw %"class.cv::Rect_", ptr %58, i32 0, i32 3
  %60 = load i32, ptr %59, align 4, !tbaa !132
  %61 = sitofp i32 %60 to float
  %62 = load float, ptr %7, align 4, !tbaa !110
  %63 = fmul float %61, %62
  %64 = fptosi float %63 to i32
  %65 = getelementptr inbounds nuw %"class.cv::Rect_", ptr %4, i32 0, i32 3
  store i32 %64, ptr %65, align 4, !tbaa !132
  %66 = load ptr, ptr %6, align 8, !tbaa !128
  %67 = getelementptr inbounds nuw %"class.cv::Rect_", ptr %66, i32 0, i32 2
  %68 = load i32, ptr %67, align 4, !tbaa !130
  %69 = sitofp i32 %68 to float
  %70 = load float, ptr %7, align 4, !tbaa !110
  %71 = fmul float %69, %70
  %72 = fptosi float %71 to i32
  %73 = getelementptr inbounds nuw %"class.cv::Rect_", ptr %4, i32 0, i32 2
  store i32 %72, ptr %73, align 4, !tbaa !130
  %74 = load { i64, i64 }, ptr %4, align 4
  ret { i64, i64 } %74
}