; Function Attrs: mustprogress nofree norecurse nosync nounwind willreturn memory(argmem: read) uwtable
define { i64, i64 } @_ZN2cv6detail8tracking16TrackerSamplerCS12RectMultiplyERKNS_5Rect_IiEEf(ptr noundef nonnull readnone align 8 captures(none) dereferenceable(100) %0, ptr noundef nonnull readonly align 4 captures(none) dereferenceable(16) %1, float noundef %2) local_unnamed_addr #11 align 2 {
  %4 = getelementptr inbounds nuw i8, ptr %1, i64 4
  %5 = load i32, ptr %4, align 4, !tbaa !179
  %6 = sitofp i32 %5 to float
  %7 = getelementptr inbounds nuw i8, ptr %1, i64 12
  %8 = load i32, ptr %7, align 4, !tbaa !181
  %9 = sitofp i32 %8 to float
  %10 = fneg float %9
  %11 = tail call float @llvm.fmuladd.f32(float %9, float %2, float %10)
  %12 = fmul float %11, 5.000000e-01
  %13 = fsub float %6, %12
  %14 = fptosi float %13 to i32
  %spec.select = tail call i32 @llvm.smax.i32(i32 %14, i32 0)
  %15 = load i32, ptr %1, align 4, !tbaa !177
  %16 = sitofp i32 %15 to float
  %17 = getelementptr inbounds nuw i8, ptr %1, i64 8
  %18 = load i32, ptr %17, align 4, !tbaa !180
  %19 = sitofp i32 %18 to float
  %20 = fneg float %19
  %21 = tail call float @llvm.fmuladd.f32(float %19, float %2, float %20)
  %22 = fmul float %21, 5.000000e-01
  %23 = fsub float %16, %22
  %24 = fptosi float %23 to i32
  %storemerge12 = tail call i32 @llvm.smax.i32(i32 %24, i32 0)
  %25 = fmul float %2, %9
  %26 = fptosi float %25 to i32
  %.sroa.4.12.insert.ext = zext i32 %26 to i64
  %.sroa.4.12.insert.shift = shl nuw i64 %.sroa.4.12.insert.ext, 32
  %27 = fmul float %2, %19
  %28 = fptosi float %27 to i32
  %.sroa.4.8.insert.ext = zext i32 %28 to i64
  %.sroa.4.8.insert.insert = or disjoint i64 %.sroa.4.12.insert.shift, %.sroa.4.8.insert.ext
  %.sroa.0.sroa.3.0.insert.ext = zext nneg i32 %spec.select to i64
  %.sroa.0.sroa.3.0.insert.shift = shl nuw nsw i64 %.sroa.0.sroa.3.0.insert.ext, 32
  %.sroa.0.sroa.0.0.insert.ext = zext nneg i32 %storemerge12 to i64
  %.sroa.0.sroa.0.0.insert.insert = or disjoint i64 %.sroa.0.sroa.3.0.insert.shift, %.sroa.0.sroa.0.0.insert.ext
  %.fca.0.insert = insertvalue { i64, i64 } poison, i64 %.sroa.0.sroa.0.0.insert.insert, 0
  %.fca.1.insert = insertvalue { i64, i64 } %.fca.0.insert, i64 %.sroa.4.8.insert.insert, 1
  ret { i64, i64 } %.fca.1.insert
}